; ModuleID = '44/1287.c'
source_filename = "44/1287.c"
target datalayout = "e-m:e-p270:32:32-p271:32:32-p272:64:64-i64:64-f80:128-n8:16:32:64-S128"
target triple = "x86_64-pc-linux-gnu"

@.str = private unnamed_addr constant [3 x i8] c"%s\00", align 1
@.str.1 = private unnamed_addr constant [3 x i8] c"%c\00", align 1
@.str.2 = private unnamed_addr constant [4 x i8] c"%d\0A\00", align 1

; Function Attrs: noinline nounwind uwtable
define dso_local void @main() #0 {
  %1 = alloca [100 x i8], align 16
  %2 = alloca i8, align 1
  %3 = alloca i32, align 4
  %4 = alloca i32, align 4
  %5 = alloca i32, align 4
  %6 = alloca i32, align 4
  %7 = alloca i32, align 4
  %8 = alloca i32, align 4
  store i32 0, i32* %3, align 4
  br label %9

9:                                                ; preds = %118, %0
  %10 = load i32, i32* %3, align 4
  %11 = icmp slt i32 %10, 6
  br i1 %11, label %12, label %121

12:                                               ; preds = %9
  %13 = getelementptr inbounds [100 x i8], [100 x i8]* %1, i64 0, i64 0
  %14 = call i32 (i8*, ...) @__isoc99_scanf(i8* getelementptr inbounds ([3 x i8], [3 x i8]* @.str, i64 0, i64 0), i8* %13)
  store i32 0, i32* %6, align 4
  %15 = getelementptr inbounds [100 x i8], [100 x i8]* %1, i64 0, i64 0
  %16 = call i64 @strlen(i8* %15) #3
  %17 = trunc i64 %16 to i32
  store i32 %17, i32* %5, align 4
  %18 = getelementptr inbounds [100 x i8], [100 x i8]* %1, i64 0, i64 0
  %19 = load i8, i8* %18, align 16
  %20 = sext i8 %19 to i32
  %21 = icmp eq i32 %20, 45
  br i1 %21, label %22, label %29

22:                                               ; preds = %12
  store i32 1, i32* %6, align 4
  %23 = load i32, i32* %5, align 4
  %24 = add nsw i32 %23, 1
  store i32 %24, i32* %5, align 4
  %25 = getelementptr inbounds [100 x i8], [100 x i8]* %1, i64 0, i64 0
  %26 = load i8, i8* %25, align 16
  %27 = sext i8 %26 to i32
  %28 = call i32 (i8*, ...) @printf(i8* getelementptr inbounds ([3 x i8], [3 x i8]* @.str.1, i64 0, i64 0), i32 %27)
  br label %29

29:                                               ; preds = %22, %12
  %30 = load i32, i32* %6, align 4
  store i32 %30, i32* %4, align 4
  br label %31

31:                                               ; preds = %58, %29
  %32 = load i32, i32* %4, align 4
  %33 = load i32, i32* %5, align 4
  %34 = sdiv i32 %33, 2
  %35 = icmp slt i32 %32, %34
  br i1 %35, label %36, label %61

36:                                               ; preds = %31
  %37 = load i32, i32* %4, align 4
  %38 = sext i32 %37 to i64
  %39 = getelementptr inbounds [100 x i8], [100 x i8]* %1, i64 0, i64 %38
  %40 = load i8, i8* %39, align 1
  store i8 %40, i8* %2, align 1
  %41 = load i32, i32* %5, align 4
  %42 = sub nsw i32 %41, 1
  %43 = load i32, i32* %4, align 4
  %44 = sub nsw i32 %42, %43
  %45 = sext i32 %44 to i64
  %46 = getelementptr inbounds [100 x i8], [100 x i8]* %1, i64 0, i64 %45
  %47 = load i8, i8* %46, align 1
  %48 = load i32, i32* %4, align 4
  %49 = sext i32 %48 to i64
  %50 = getelementptr inbounds [100 x i8], [100 x i8]* %1, i64 0, i64 %49
  store i8 %47, i8* %50, align 1
  %51 = load i8, i8* %2, align 1
  %52 = load i32, i32* %5, align 4
  %53 = sub nsw i32 %52, 1
  %54 = load i32, i32* %4, align 4
  %55 = sub nsw i32 %53, %54
  %56 = sext i32 %55 to i64
  %57 = getelementptr inbounds [100 x i8], [100 x i8]* %1, i64 0, i64 %56
  store i8 %51, i8* %57, align 1
  br label %58

58:                                               ; preds = %36
  %59 = load i32, i32* %4, align 4
  %60 = add nsw i32 %59, 1
  store i32 %60, i32* %4, align 4
  br label %31

61:                                               ; preds = %31
  %62 = load i32, i32* %6, align 4
  %63 = sext i32 %62 to i64
  %64 = getelementptr inbounds [100 x i8], [100 x i8]* %1, i64 0, i64 %63
  %65 = load i8, i8* %64, align 1
  %66 = sext i8 %65 to i32
  %67 = sub nsw i32 %66, 48
  store i32 %67, i32* %8, align 4
  %68 = load i32, i32* %6, align 4
  %69 = icmp ne i32 %68, 0
  br i1 %69, label %70, label %94

70:                                               ; preds = %61
  %71 = load i32, i32* %6, align 4
  %72 = add nsw i32 %71, 1
  store i32 %72, i32* %4, align 4
  br label %73

73:                                               ; preds = %88, %70
  %74 = load i32, i32* %4, align 4
  %75 = load i32, i32* %5, align 4
  %76 = sub nsw i32 %75, 1
  %77 = icmp slt i32 %74, %76
  br i1 %77, label %78, label %91

78:                                               ; preds = %73
  %79 = load i32, i32* %8, align 4
  %80 = mul nsw i32 %79, 10
  %81 = load i32, i32* %4, align 4
  %82 = sext i32 %81 to i64
  %83 = getelementptr inbounds [100 x i8], [100 x i8]* %1, i64 0, i64 %82
  %84 = load i8, i8* %83, align 1
  %85 = sext i8 %84 to i32
  %86 = add nsw i32 %80, %85
  %87 = sub nsw i32 %86, 48
  store i32 %87, i32* %8, align 4
  br label %88

88:                                               ; preds = %78
  %89 = load i32, i32* %4, align 4
  %90 = add nsw i32 %89, 1
  store i32 %90, i32* %4, align 4
  br label %73

91:                                               ; preds = %73
  %92 = load i32, i32* %8, align 4
  %93 = call i32 (i8*, ...) @printf(i8* getelementptr inbounds ([4 x i8], [4 x i8]* @.str.2, i64 0, i64 0), i32 %92)
  br label %117

94:                                               ; preds = %61
  %95 = load i32, i32* %6, align 4
  %96 = add nsw i32 %95, 1
  store i32 %96, i32* %4, align 4
  br label %97

97:                                               ; preds = %111, %94
  %98 = load i32, i32* %4, align 4
  %99 = load i32, i32* %5, align 4
  %100 = icmp slt i32 %98, %99
  br i1 %100, label %101, label %114

101:                                              ; preds = %97
  %102 = load i32, i32* %8, align 4
  %103 = mul nsw i32 %102, 10
  %104 = load i32, i32* %4, align 4
  %105 = sext i32 %104 to i64
  %106 = getelementptr inbounds [100 x i8], [100 x i8]* %1, i64 0, i64 %105
  %107 = load i8, i8* %106, align 1
  %108 = sext i8 %107 to i32
  %109 = add nsw i32 %103, %108
  %110 = sub nsw i32 %109, 48
  store i32 %110, i32* %8, align 4
  br label %111

111:                                              ; preds = %101
  %112 = load i32, i32* %4, align 4
  %113 = add nsw i32 %112, 1
  store i32 %113, i32* %4, align 4
  br label %97

114:                                              ; preds = %97
  %115 = load i32, i32* %8, align 4
  %116 = call i32 (i8*, ...) @printf(i8* getelementptr inbounds ([4 x i8], [4 x i8]* @.str.2, i64 0, i64 0), i32 %115)
  br label %117

117:                                              ; preds = %114, %91
  br label %118

118:                                              ; preds = %117
  %119 = load i32, i32* %3, align 4
  %120 = add nsw i32 %119, 1
  store i32 %120, i32* %3, align 4
  br label %9

121:                                              ; preds = %9
  ret void
}

declare dso_local i32 @__isoc99_scanf(i8*, ...) #1

; Function Attrs: nounwind readonly
declare dso_local i64 @strlen(i8*) #2

declare dso_local i32 @printf(i8*, ...) #1


!llvm.module.flags = !{!0}
!llvm.ident = !{!1}

!0 = !{i32 1, !"wchar_size", i32 4}
!1 = !{!"clang version 10.0.0-4ubuntu1 "}
